	.text
	.syntax unified
	.eabi_attribute	67, "2.09"	@ Tag_conformance
	.cpu	cortex-m33
	.eabi_attribute	6, 17	@ Tag_CPU_arch
	.eabi_attribute	7, 77	@ Tag_CPU_arch_profile
	.eabi_attribute	8, 0	@ Tag_ARM_ISA_use
	.eabi_attribute	9, 3	@ Tag_THUMB_ISA_use
	.fpu	fpv5-sp-d16
	.eabi_attribute	27, 1	@ Tag_ABI_HardFP_use
	.eabi_attribute	36, 1	@ Tag_FP_HP_extension
	.eabi_attribute	34, 1	@ Tag_CPU_unaligned_access
	.eabi_attribute	17, 1	@ Tag_ABI_PCS_GOT_use
	.eabi_attribute	20, 2	@ Tag_ABI_FP_denormal
	.eabi_attribute	21, 0	@ Tag_ABI_FP_exceptions
	.eabi_attribute	23, 1	@ Tag_ABI_FP_number_model
	.eabi_attribute	24, 1	@ Tag_ABI_align_needed
	.eabi_attribute	25, 1	@ Tag_ABI_align_preserved
	.eabi_attribute	28, 1	@ Tag_ABI_VFP_args
	.eabi_attribute	38, 1	@ Tag_ABI_FP_16bit_format
	.eabi_attribute	18, 2	@ Tag_ABI_PCS_wchar_t
	.eabi_attribute	26, 1	@ Tag_ABI_enum_size
	.eabi_attribute	14, 0	@ Tag_ABI_PCS_R9_use
	.file	"i2c_hardware.c"
	.section	.text.dsp_i2c_write_data,"ax",%progbits
	.hidden	dsp_i2c_write_data              @ -- Begin function dsp_i2c_write_data
	.globl	dsp_i2c_write_data
	.p2align	2
	.type	dsp_i2c_write_data,%function
	.code	16                              @ @dsp_i2c_write_data
	.thumb_func
dsp_i2c_write_data:
.Lfunc_begin0:
	.file	1 "D:\\E\\code\\\347\211\210\346\234\254\344\273\243\347\240\201\\\350\260\203\350\257\225\347\211\210\346\234\254--dsp\346\226\271\346\241\210\\mcu_project__debug_fordsp\\source\\Keil_project" "../../thd_dsp_download_release_V0_0/i2c_hardware.c"
	.loc	1 64 0                          @ ../../thd_dsp_download_release_V0_0/i2c_hardware.c:64:0
	.fnstart
	.cfi_sections .debug_frame
	.cfi_startproc
@ %bb.0:
	.save	{r7, lr}
	push	{r7, lr}
	.cfi_def_cfa_offset 8
	.cfi_offset lr, -4
	.cfi_offset r7, -8
	.pad	#32
	sub	sp, #32
	.cfi_def_cfa_offset 40
	str	r0, [sp, #28]
	str	r1, [sp, #24]
	movs	r0, #0
.Ltmp0:
	.loc	1 66 5 prologue_end             @ ../../thd_dsp_download_release_V0_0/i2c_hardware.c:66:5
	str	r0, [sp, #20]
	str	r0, [sp, #16]
	str	r0, [sp, #12]
	add	r0, sp, #12
	str	r0, [sp, #8]                    @ 4-byte Spill
	adds	r1, r0, #4
	.loc	1 67 20                         @ ../../thd_dsp_download_release_V0_0/i2c_hardware.c:67:20
	str	r1, [sp, #4]                    @ 4-byte Spill
	ldr	r1, [sp, #28]
	.loc	1 67 5 is_stmt 0                @ ../../thd_dsp_download_release_V0_0/i2c_hardware.c:67:5
	bl	set_u32
	ldr	r0, [sp, #4]                    @ 4-byte Reload
	.loc	1 68 24 is_stmt 1               @ ../../thd_dsp_download_release_V0_0/i2c_hardware.c:68:24
	ldr	r1, [sp, #24]
	.loc	1 68 5 is_stmt 0                @ ../../thd_dsp_download_release_V0_0/i2c_hardware.c:68:5
	bl	set_u32
	ldr	r1, [sp, #8]                    @ 4-byte Reload
	movs	r0, #174
	movs	r2, #8
	.loc	1 69 5 is_stmt 1                @ ../../thd_dsp_download_release_V0_0/i2c_hardware.c:69:5
	bl	master_dsp_fsl_reg_4byte_write
	.loc	1 70 5                          @ ../../thd_dsp_download_release_V0_0/i2c_hardware.c:70:5
	add	sp, #32
	pop	{r7, pc}
.Ltmp1:
.Lfunc_end0:
	.size	dsp_i2c_write_data, .Lfunc_end0-dsp_i2c_write_data
	.cfi_endproc
	.cantunwind
	.fnend
                                        @ -- End function
	.section	.text.dsp_i2c_read_data,"ax",%progbits
	.hidden	dsp_i2c_read_data               @ -- Begin function dsp_i2c_read_data
	.globl	dsp_i2c_read_data
	.p2align	2
	.type	dsp_i2c_read_data,%function
	.code	16                              @ @dsp_i2c_read_data
	.thumb_func
dsp_i2c_read_data:
.Lfunc_begin1:
	.loc	1 74 0                          @ ../../thd_dsp_download_release_V0_0/i2c_hardware.c:74:0
	.fnstart
	.cfi_startproc
@ %bb.0:
	.save	{r7, lr}
	push	{r7, lr}
	.cfi_def_cfa_offset 8
	.cfi_offset lr, -4
	.cfi_offset r7, -8
	.pad	#24
	sub	sp, #24
	.cfi_def_cfa_offset 32
	str	r0, [sp, #20]
	str	r1, [sp, #16]
	movs	r0, #0
.Ltmp2:
	.loc	1 76 5 prologue_end             @ ../../thd_dsp_download_release_V0_0/i2c_hardware.c:76:5
	str	r0, [sp, #12]
	str	r0, [sp, #8]
	str	r0, [sp, #4]
.Ltmp3:
	.loc	1 77 16                         @ ../../thd_dsp_download_release_V0_0/i2c_hardware.c:77:16
	ldr	r0, [sp, #16]
.Ltmp4:
	.loc	1 77 8 is_stmt 0                @ ../../thd_dsp_download_release_V0_0/i2c_hardware.c:77:8
	cbnz	r0, .LBB1_2
	b	.LBB1_1
.LBB1_1:
.Ltmp5:
	.loc	1 79 9 is_stmt 1                @ ../../thd_dsp_download_release_V0_0/i2c_hardware.c:79:9
	b	.LBB1_3
.Ltmp6:
.LBB1_2:
	.loc	1 81 46                         @ ../../thd_dsp_download_release_V0_0/i2c_hardware.c:81:46
	ldr	r1, [sp, #20]
	movs	r0, #174
	add	r2, sp, #4
	str	r2, [sp]                        @ 4-byte Spill
	movs	r3, #4
	.loc	1 81 5 is_stmt 0                @ ../../thd_dsp_download_release_V0_0/i2c_hardware.c:81:5
	bl	master_dsp_fsl_reg_4byte_size_read
	ldr	r0, [sp]                        @ 4-byte Reload
	.loc	1 82 12 is_stmt 1               @ ../../thd_dsp_download_release_V0_0/i2c_hardware.c:82:12
	bl	get_u32
	.loc	1 82 6 is_stmt 0                @ ../../thd_dsp_download_release_V0_0/i2c_hardware.c:82:6
	ldr	r1, [sp, #16]
	.loc	1 82 10                         @ ../../thd_dsp_download_release_V0_0/i2c_hardware.c:82:10
	str	r0, [r1]
	.loc	1 83 5 is_stmt 1                @ ../../thd_dsp_download_release_V0_0/i2c_hardware.c:83:5
	b	.LBB1_3
.LBB1_3:
	.loc	1 84 1                          @ ../../thd_dsp_download_release_V0_0/i2c_hardware.c:84:1
	add	sp, #24
	pop	{r7, pc}
.Ltmp7:
.Lfunc_end1:
	.size	dsp_i2c_read_data, .Lfunc_end1-dsp_i2c_read_data
	.cfi_endproc
	.cantunwind
	.fnend
                                        @ -- End function
	.section	.text.dsp_i2c_WriteAddrContinue,"ax",%progbits
	.hidden	dsp_i2c_WriteAddrContinue       @ -- Begin function dsp_i2c_WriteAddrContinue
	.globl	dsp_i2c_WriteAddrContinue
	.p2align	2
	.type	dsp_i2c_WriteAddrContinue,%function
	.code	16                              @ @dsp_i2c_WriteAddrContinue
	.thumb_func
dsp_i2c_WriteAddrContinue:
.Lfunc_begin2:
	.loc	1 87 0                          @ ../../thd_dsp_download_release_V0_0/i2c_hardware.c:87:0
	.fnstart
	.cfi_startproc
@ %bb.0:
	.save	{r7, lr}
	push	{r7, lr}
	.cfi_def_cfa_offset 8
	.cfi_offset lr, -4
	.cfi_offset r7, -8
	.pad	#272
	sub	sp, #272
	.cfi_def_cfa_offset 280
	str	r0, [sp, #268]
	str	r1, [sp, #264]
	str	r2, [sp, #260]
	add.w	r0, sp, #10
	movs	r1, #250
.Ltmp8:
	.loc	1 89 5 prologue_end             @ ../../thd_dsp_download_release_V0_0/i2c_hardware.c:89:5
	bl	__aeabi_memclr
.Ltmp9:
	.loc	1 92 25                         @ ../../thd_dsp_download_release_V0_0/i2c_hardware.c:92:25
	ldr	r0, [sp, #260]
	.loc	1 92 23 is_stmt 0               @ ../../thd_dsp_download_release_V0_0/i2c_hardware.c:92:23
	adds	r0, #4
	.loc	1 92 48                         @ ../../thd_dsp_download_release_V0_0/i2c_hardware.c:92:48
	cmp	r0, #250
	bhi	.LBB2_2
	b	.LBB2_1
.LBB2_1:
	.loc	1 92 59                         @ ../../thd_dsp_download_release_V0_0/i2c_hardware.c:92:59
	ldr	r0, [sp, #264]
.Ltmp10:
	.loc	1 92 8                          @ ../../thd_dsp_download_release_V0_0/i2c_hardware.c:92:8
	cbnz	r0, .LBB2_3
	b	.LBB2_2
.LBB2_2:
.Ltmp11:
	.loc	1 94 9 is_stmt 1                @ ../../thd_dsp_download_release_V0_0/i2c_hardware.c:94:9
	b	.LBB2_4
.Ltmp12:
.LBB2_3:
	.loc	1 97 20                         @ ../../thd_dsp_download_release_V0_0/i2c_hardware.c:97:20
	ldr	r1, [sp, #268]
	add.w	r0, sp, #10
	.loc	1 97 5 is_stmt 0                @ ../../thd_dsp_download_release_V0_0/i2c_hardware.c:97:5
	str	r0, [sp, #4]                    @ 4-byte Spill
	bl	set_u32
	ldr	r0, [sp, #4]                    @ 4-byte Reload
	.loc	1 98 13 is_stmt 1               @ ../../thd_dsp_download_release_V0_0/i2c_hardware.c:98:13
	adds	r0, #4
	.loc	1 98 23 is_stmt 0               @ ../../thd_dsp_download_release_V0_0/i2c_hardware.c:98:23
	ldr	r1, [sp, #264]
	.loc	1 98 28                         @ ../../thd_dsp_download_release_V0_0/i2c_hardware.c:98:28
	ldr	r2, [sp, #260]
	.loc	1 98 5                          @ ../../thd_dsp_download_release_V0_0/i2c_hardware.c:98:5
	bl	__aeabi_memcpy
	ldr	r1, [sp, #4]                    @ 4-byte Reload
	.loc	1 101 17 is_stmt 1              @ ../../thd_dsp_download_release_V0_0/i2c_hardware.c:101:17
	ldr	r0, [sp, #260]
	.loc	1 101 21 is_stmt 0              @ ../../thd_dsp_download_release_V0_0/i2c_hardware.c:101:21
	adds	r2, r0, #4
	movs	r0, #174
	.loc	1 100 5 is_stmt 1               @ ../../thd_dsp_download_release_V0_0/i2c_hardware.c:100:5
	bl	master_dsp_fsl_reg_4byte_write
	.loc	1 102 5                         @ ../../thd_dsp_download_release_V0_0/i2c_hardware.c:102:5
	b	.LBB2_4
.LBB2_4:
	.loc	1 103 1                         @ ../../thd_dsp_download_release_V0_0/i2c_hardware.c:103:1
	add	sp, #272
	pop	{r7, pc}
.Ltmp13:
.Lfunc_end2:
	.size	dsp_i2c_WriteAddrContinue, .Lfunc_end2-dsp_i2c_WriteAddrContinue
	.cfi_endproc
	.cantunwind
	.fnend
                                        @ -- End function
	.section	.text.dsp_i2c_ReadAddrContinue,"ax",%progbits
	.hidden	dsp_i2c_ReadAddrContinue        @ -- Begin function dsp_i2c_ReadAddrContinue
	.globl	dsp_i2c_ReadAddrContinue
	.p2align	2
	.type	dsp_i2c_ReadAddrContinue,%function
	.code	16                              @ @dsp_i2c_ReadAddrContinue
	.thumb_func
dsp_i2c_ReadAddrContinue:
.Lfunc_begin3:
	.loc	1 106 0                         @ ../../thd_dsp_download_release_V0_0/i2c_hardware.c:106:0
	.fnstart
	.cfi_startproc
@ %bb.0:
	.save	{r7, lr}
	push	{r7, lr}
	.cfi_def_cfa_offset 8
	.cfi_offset lr, -4
	.cfi_offset r7, -8
	.pad	#16
	sub	sp, #16
	.cfi_def_cfa_offset 24
	str	r0, [sp, #12]
	str	r1, [sp, #8]
	str	r2, [sp, #4]
.Ltmp14:
	.loc	1 108 9 prologue_end            @ ../../thd_dsp_download_release_V0_0/i2c_hardware.c:108:9
	ldr	r1, [sp, #12]
	.loc	1 109 9                         @ ../../thd_dsp_download_release_V0_0/i2c_hardware.c:109:9
	ldr	r2, [sp, #8]
	.loc	1 110 9                         @ ../../thd_dsp_download_release_V0_0/i2c_hardware.c:110:9
	ldr	r3, [sp, #4]
	movs	r0, #174
	.loc	1 107 5                         @ ../../thd_dsp_download_release_V0_0/i2c_hardware.c:107:5
	bl	master_dsp_fsl_reg_4byte_size_read
	.loc	1 112 5                         @ ../../thd_dsp_download_release_V0_0/i2c_hardware.c:112:5
	add	sp, #16
	pop	{r7, pc}
.Ltmp15:
.Lfunc_end3:
	.size	dsp_i2c_ReadAddrContinue, .Lfunc_end3-dsp_i2c_ReadAddrContinue
	.cfi_endproc
	.cantunwind
	.fnend
                                        @ -- End function
	.section	.text.I2C_RegisterWrite,"ax",%progbits
	.hidden	I2C_RegisterWrite               @ -- Begin function I2C_RegisterWrite
	.globl	I2C_RegisterWrite
	.p2align	2
	.type	I2C_RegisterWrite,%function
	.code	16                              @ @I2C_RegisterWrite
	.thumb_func
I2C_RegisterWrite:
.Lfunc_begin4:
	.loc	1 116 0                         @ ../../thd_dsp_download_release_V0_0/i2c_hardware.c:116:0
	.fnstart
	.cfi_startproc
@ %bb.0:
	.save	{r7, lr}
	push	{r7, lr}
	.cfi_def_cfa_offset 8
	.cfi_offset lr, -4
	.cfi_offset r7, -8
	.pad	#24
	sub	sp, #24
	.cfi_def_cfa_offset 32
	str	r0, [sp, #20]
	str	r1, [sp, #16]
.Ltmp16:
	.loc	1 119 21 prologue_end           @ ../../thd_dsp_download_release_V0_0/i2c_hardware.c:119:21
	ldr	r1, [sp, #20]
	add.w	r0, sp, #6
	.loc	1 119 5 is_stmt 0               @ ../../thd_dsp_download_release_V0_0/i2c_hardware.c:119:5
	str	r0, [sp]                        @ 4-byte Spill
	bl	set_u32
	ldr	r0, [sp]                        @ 4-byte Reload
	.loc	1 120 14 is_stmt 1              @ ../../thd_dsp_download_release_V0_0/i2c_hardware.c:120:14
	adds	r0, #4
	.loc	1 120 25 is_stmt 0              @ ../../thd_dsp_download_release_V0_0/i2c_hardware.c:120:25
	ldr	r1, [sp, #16]
	.loc	1 120 5                         @ ../../thd_dsp_download_release_V0_0/i2c_hardware.c:120:5
	bl	set_u32
	ldr	r1, [sp]                        @ 4-byte Reload
	movs	r0, #174
	movs	r2, #8
	.loc	1 121 5 is_stmt 1               @ ../../thd_dsp_download_release_V0_0/i2c_hardware.c:121:5
	bl	master_dsp_fsl_reg_4byte_write
	.loc	1 123 5                         @ ../../thd_dsp_download_release_V0_0/i2c_hardware.c:123:5
	add	sp, #24
	pop	{r7, pc}
.Ltmp17:
.Lfunc_end4:
	.size	I2C_RegisterWrite, .Lfunc_end4-I2C_RegisterWrite
	.cfi_endproc
	.cantunwind
	.fnend
                                        @ -- End function
	.section	.text.I2C_RegisterRead,"ax",%progbits
	.hidden	I2C_RegisterRead                @ -- Begin function I2C_RegisterRead
	.globl	I2C_RegisterRead
	.p2align	2
	.type	I2C_RegisterRead,%function
	.code	16                              @ @I2C_RegisterRead
	.thumb_func
I2C_RegisterRead:
.Lfunc_begin5:
	.loc	1 147 0                         @ ../../thd_dsp_download_release_V0_0/i2c_hardware.c:147:0
	.fnstart
	.cfi_startproc
@ %bb.0:
	.save	{r7, lr}
	push	{r7, lr}
	.cfi_def_cfa_offset 8
	.cfi_offset lr, -4
	.cfi_offset r7, -8
	.pad	#24
	sub	sp, #24
	.cfi_def_cfa_offset 32
	str	r0, [sp, #20]
	str	r1, [sp, #16]
.Ltmp18:
	.loc	1 150 16 prologue_end           @ ../../thd_dsp_download_release_V0_0/i2c_hardware.c:150:16
	ldr	r0, [sp, #16]
.Ltmp19:
	.loc	1 150 8 is_stmt 0               @ ../../thd_dsp_download_release_V0_0/i2c_hardware.c:150:8
	cbnz	r0, .LBB5_2
	b	.LBB5_1
.LBB5_1:
.Ltmp20:
	.loc	1 152 9 is_stmt 1               @ ../../thd_dsp_download_release_V0_0/i2c_hardware.c:152:9
	b	.LBB5_3
.Ltmp21:
.LBB5_2:
	.loc	1 155 9                         @ ../../thd_dsp_download_release_V0_0/i2c_hardware.c:155:9
	ldr	r1, [sp, #20]
	movs	r0, #174
	add	r2, sp, #8
	str	r2, [sp, #4]                    @ 4-byte Spill
	movs	r3, #4
	.loc	1 154 5                         @ ../../thd_dsp_download_release_V0_0/i2c_hardware.c:154:5
	bl	master_dsp_fsl_reg_4byte_size_read
	ldr	r0, [sp, #4]                    @ 4-byte Reload
	.loc	1 158 12                        @ ../../thd_dsp_download_release_V0_0/i2c_hardware.c:158:12
	bl	get_u32
	.loc	1 158 6 is_stmt 0               @ ../../thd_dsp_download_release_V0_0/i2c_hardware.c:158:6
	ldr	r1, [sp, #16]
	.loc	1 158 10                        @ ../../thd_dsp_download_release_V0_0/i2c_hardware.c:158:10
	str	r0, [r1]
	.loc	1 159 5 is_stmt 1               @ ../../thd_dsp_download_release_V0_0/i2c_hardware.c:159:5
	b	.LBB5_3
.LBB5_3:
	.loc	1 179 1                         @ ../../thd_dsp_download_release_V0_0/i2c_hardware.c:179:1
	add	sp, #24
	pop	{r7, pc}
.Ltmp22:
.Lfunc_end5:
	.size	I2C_RegisterRead, .Lfunc_end5-I2C_RegisterRead
	.cfi_endproc
	.cantunwind
	.fnend
                                        @ -- End function
	.section	.text.I2C_WriteAddrContinue,"ax",%progbits
	.hidden	I2C_WriteAddrContinue           @ -- Begin function I2C_WriteAddrContinue
	.globl	I2C_WriteAddrContinue
	.p2align	2
	.type	I2C_WriteAddrContinue,%function
	.code	16                              @ @I2C_WriteAddrContinue
	.thumb_func
I2C_WriteAddrContinue:
.Lfunc_begin6:
	.loc	1 182 0                         @ ../../thd_dsp_download_release_V0_0/i2c_hardware.c:182:0
	.fnstart
	.cfi_startproc
@ %bb.0:
	.save	{r7, lr}
	push	{r7, lr}
	.cfi_def_cfa_offset 8
	.cfi_offset lr, -4
	.cfi_offset r7, -8
	.pad	#272
	sub	sp, #272
	.cfi_def_cfa_offset 280
	str	r0, [sp, #268]
	str	r1, [sp, #264]
	str	r2, [sp, #260]
	add.w	r0, sp, #10
	movs	r1, #250
.Ltmp23:
	.loc	1 184 5 prologue_end            @ ../../thd_dsp_download_release_V0_0/i2c_hardware.c:184:5
	bl	__aeabi_memclr
.Ltmp24:
	.loc	1 187 25                        @ ../../thd_dsp_download_release_V0_0/i2c_hardware.c:187:25
	ldr	r0, [sp, #260]
	.loc	1 187 23 is_stmt 0              @ ../../thd_dsp_download_release_V0_0/i2c_hardware.c:187:23
	adds	r0, #4
	.loc	1 187 48                        @ ../../thd_dsp_download_release_V0_0/i2c_hardware.c:187:48
	cmp	r0, #250
	bhi	.LBB6_2
	b	.LBB6_1
.LBB6_1:
	.loc	1 187 59                        @ ../../thd_dsp_download_release_V0_0/i2c_hardware.c:187:59
	ldr	r0, [sp, #264]
.Ltmp25:
	.loc	1 187 8                         @ ../../thd_dsp_download_release_V0_0/i2c_hardware.c:187:8
	cbnz	r0, .LBB6_3
	b	.LBB6_2
.LBB6_2:
.Ltmp26:
	.loc	1 189 9 is_stmt 1               @ ../../thd_dsp_download_release_V0_0/i2c_hardware.c:189:9
	b	.LBB6_4
.Ltmp27:
.LBB6_3:
	.loc	1 192 20                        @ ../../thd_dsp_download_release_V0_0/i2c_hardware.c:192:20
	ldr	r1, [sp, #268]
	add.w	r0, sp, #10
	.loc	1 192 5 is_stmt 0               @ ../../thd_dsp_download_release_V0_0/i2c_hardware.c:192:5
	str	r0, [sp, #4]                    @ 4-byte Spill
	bl	set_u32
	ldr	r0, [sp, #4]                    @ 4-byte Reload
	.loc	1 193 13 is_stmt 1              @ ../../thd_dsp_download_release_V0_0/i2c_hardware.c:193:13
	adds	r0, #4
	.loc	1 193 23 is_stmt 0              @ ../../thd_dsp_download_release_V0_0/i2c_hardware.c:193:23
	ldr	r1, [sp, #264]
	.loc	1 193 28                        @ ../../thd_dsp_download_release_V0_0/i2c_hardware.c:193:28
	ldr	r2, [sp, #260]
	.loc	1 193 5                         @ ../../thd_dsp_download_release_V0_0/i2c_hardware.c:193:5
	bl	__aeabi_memcpy
	ldr	r1, [sp, #4]                    @ 4-byte Reload
	.loc	1 196 17 is_stmt 1              @ ../../thd_dsp_download_release_V0_0/i2c_hardware.c:196:17
	ldr	r0, [sp, #260]
	.loc	1 196 21 is_stmt 0              @ ../../thd_dsp_download_release_V0_0/i2c_hardware.c:196:21
	adds	r2, r0, #4
	movs	r0, #174
	.loc	1 195 5 is_stmt 1               @ ../../thd_dsp_download_release_V0_0/i2c_hardware.c:195:5
	bl	master_dsp_fsl_reg_4byte_write
	.loc	1 214 1                         @ ../../thd_dsp_download_release_V0_0/i2c_hardware.c:214:1
	b	.LBB6_4
.LBB6_4:
	add	sp, #272
	pop	{r7, pc}
.Ltmp28:
.Lfunc_end6:
	.size	I2C_WriteAddrContinue, .Lfunc_end6-I2C_WriteAddrContinue
	.cfi_endproc
	.cantunwind
	.fnend
                                        @ -- End function
	.section	.text.I2C_ReadAddrContinue,"ax",%progbits
	.hidden	I2C_ReadAddrContinue            @ -- Begin function I2C_ReadAddrContinue
	.globl	I2C_ReadAddrContinue
	.p2align	2
	.type	I2C_ReadAddrContinue,%function
	.code	16                              @ @I2C_ReadAddrContinue
	.thumb_func
I2C_ReadAddrContinue:
.Lfunc_begin7:
	.loc	1 216 0                         @ ../../thd_dsp_download_release_V0_0/i2c_hardware.c:216:0
	.fnstart
	.cfi_startproc
@ %bb.0:
	.save	{r7, lr}
	push	{r7, lr}
	.cfi_def_cfa_offset 8
	.cfi_offset lr, -4
	.cfi_offset r7, -8
	.pad	#16
	sub	sp, #16
	.cfi_def_cfa_offset 24
	str	r0, [sp, #12]
	str	r1, [sp, #8]
	str	r2, [sp, #4]
.Ltmp29:
	.loc	1 218 9 prologue_end            @ ../../thd_dsp_download_release_V0_0/i2c_hardware.c:218:9
	ldr	r1, [sp, #12]
	.loc	1 219 9                         @ ../../thd_dsp_download_release_V0_0/i2c_hardware.c:219:9
	ldr	r2, [sp, #8]
	.loc	1 220 9                         @ ../../thd_dsp_download_release_V0_0/i2c_hardware.c:220:9
	ldr	r3, [sp, #4]
	movs	r0, #174
	.loc	1 217 5                         @ ../../thd_dsp_download_release_V0_0/i2c_hardware.c:217:5
	bl	master_dsp_fsl_reg_4byte_size_read
	.loc	1 222 5                         @ ../../thd_dsp_download_release_V0_0/i2c_hardware.c:222:5
	add	sp, #16
	pop	{r7, pc}
.Ltmp30:
.Lfunc_end7:
	.size	I2C_ReadAddrContinue, .Lfunc_end7-I2C_ReadAddrContinue
	.cfi_endproc
	.cantunwind
	.fnend
                                        @ -- End function
	.file	2 "D:\\D\\app\\kevil5\\ARM\\ARMCLANG\\Bin\\..\\include" "stdint.h"
	.section	".note.GNU-stack","",%progbits
	.eabi_attribute	30, 6	@ Tag_ABI_optimization_goals
	.ARM_attribute	16, 1	@ Tag_AV_eba