	.text
	.syntax unified
	.eabi_attribute	67, "2.09"	@ Tag_conformance
	.cpu	cortex-m33
	.eabi_attribute	6, 17	@ Tag_CPU_arch
	.eabi_attribute	7, 77	@ Tag_CPU_arch_profile
	.eabi_attribute	8, 0	@ Tag_ARM_ISA_use
	.eabi_attribute	9, 3	@ Tag_THUMB_ISA_use
	.fpu	fpv5-sp-d16
	.eabi_attribute	27, 1	@ Tag_ABI_HardFP_use
	.eabi_attribute	36, 1	@ Tag_FP_HP_extension
	.eabi_attribute	34, 1	@ Tag_CPU_unaligned_access
	.eabi_attribute	17, 1	@ Tag_ABI_PCS_GOT_use
	.eabi_attribute	20, 2	@ Tag_ABI_FP_denormal
	.eabi_attribute	21, 0	@ Tag_ABI_FP_exceptions
	.eabi_attribute	23, 1	@ Tag_ABI_FP_number_model
	.eabi_attribute	24, 1	@ Tag_ABI_align_needed
	.eabi_attribute	25, 1	@ Tag_ABI_align_preserved
	.eabi_attribute	28, 1	@ Tag_ABI_VFP_args
	.eabi_attribute	38, 1	@ Tag_ABI_FP_16bit_format
	.eabi_attribute	18, 2	@ Tag_ABI_PCS_wchar_t
	.eabi_attribute	26, 1	@ Tag_ABI_enum_size
	.eabi_attribute	14, 0	@ Tag_ABI_PCS_R9_use
	.file	"mailbox_i2c_interface.c"
	.section	.text.mailbox_i2c_dsp_ticks_reg_read,"ax",%progbits
	.hidden	mailbox_i2c_dsp_ticks_reg_read  @ -- Begin function mailbox_i2c_dsp_ticks_reg_read
	.globl	mailbox_i2c_dsp_ticks_reg_read
	.p2align	2
	.type	mailbox_i2c_dsp_ticks_reg_read,%function
	.code	16                              @ @mailbox_i2c_dsp_ticks_reg_read
	.thumb_func
mailbox_i2c_dsp_ticks_reg_read:
.Lfunc_begin0:
	.file	1 "D:\\E\\code\\\347\211\210\346\234\254\344\273\243\347\240\201\\\350\260\203\350\257\225\347\211\210\346\234\254--dsp\346\226\271\346\241\210\\mcu_project__debug_fordsp\\source\\Keil_project" "../../thd_dsp_download_release_V0_0/mailbox_i2c_interface.c"
	.loc	1 6 0                           @ ../../thd_dsp_download_release_V0_0/mailbox_i2c_interface.c:6:0
	.fnstart
	.cfi_sections .debug_frame
	.cfi_startproc
@ %bb.0:
	.save	{r7, lr}
	push	{r7, lr}
	.cfi_def_cfa_offset 8
	.cfi_offset lr, -4
	.cfi_offset r7, -8
	.pad	#24
	sub	sp, #24
	.cfi_def_cfa_offset 32
                                        @ kill: def $r3 killed $r0
	strb.w	r0, [sp, #23]
	str	r1, [sp, #16]
	str	r2, [sp, #12]
	movs	r0, #0
.Ltmp0:
	.loc	1 7 11 prologue_end             @ ../../thd_dsp_download_release_V0_0/mailbox_i2c_interface.c:7:11
	str	r0, [sp, #8]
	.loc	1 8 14                          @ ../../thd_dsp_download_release_V0_0/mailbox_i2c_interface.c:8:14
	str	r0, [sp, #4]
	.loc	1 9 14                          @ ../../thd_dsp_download_release_V0_0/mailbox_i2c_interface.c:9:14
	str	r0, [sp]
.Ltmp1:
	.loc	1 13 13                         @ ../../thd_dsp_download_release_V0_0/mailbox_i2c_interface.c:13:13
	ldr	r0, [sp, #16]
.Ltmp2:
	.loc	1 13 5 is_stmt 0                @ ../../thd_dsp_download_release_V0_0/mailbox_i2c_interface.c:13:5
	cbnz	r0, .LBB0_2
	b	.LBB0_1
.LBB0_1:
.Ltmp3:
	.loc	1 15 3 is_stmt 1                @ ../../thd_dsp_download_release_V0_0/mailbox_i2c_interface.c:15:3
	b	.LBB0_7
.Ltmp4:
.LBB0_2:
	.loc	1 18 10                         @ ../../thd_dsp_download_release_V0_0/mailbox_i2c_interface.c:18:10
	ldr	r0, [sp, #16]
	.loc	1 18 33 is_stmt 0               @ ../../thd_dsp_download_release_V0_0/mailbox_i2c_interface.c:18:33
	movw	r1, :lower16:g_mcu_vars_param
	movt	r1, :upper16:g_mcu_vars_param
	ldr	r1, [r1, #28]
	.loc	1 18 2                          @ ../../thd_dsp_download_release_V0_0/mailbox_i2c_interface.c:18:2
	bl	set_u32
	.loc	1 19 9 is_stmt 1                @ ../../thd_dsp_download_release_V0_0/mailbox_i2c_interface.c:19:9
	ldr	r0, [sp, #4]
	adds	r0, #4
	str	r0, [sp, #4]
	movs	r0, #0
.Ltmp5:
	.loc	1 21 11                         @ ../../thd_dsp_download_release_V0_0/mailbox_i2c_interface.c:21:11
	str	r0, [sp]
	.loc	1 21 9 is_stmt 0                @ ../../thd_dsp_download_release_V0_0/mailbox_i2c_interface.c:21:9
	b	.LBB0_3
.LBB0_3:                                @ =>This Inner Loop Header: Depth=1
.Ltmp6:
	.loc	1 21 16                         @ ../../thd_dsp_download_release_V0_0/mailbox_i2c_interface.c:21:16
	ldr	r0, [sp]
.Ltmp7:
	.loc	1 21 5                          @ ../../thd_dsp_download_release_V0_0/mailbox_i2c_interface.c:21:5
	cmp	r0, #7
	bhi	.LBB0_6
	b	.LBB0_4
.LBB0_4:                                @   in Loop: Header=BB0_3 Depth=1
.Ltmp8:
	.loc	1 23 61 is_stmt 1               @ ../../thd_dsp_download_release_V0_0/mailbox_i2c_interface.c:23:61
	ldr	r1, [sp]
	.loc	1 23 26 is_stmt 0               @ ../../thd_dsp_download_release_V0_0/mailbox_i2c_interface.c:23:26
	movw	r0, :lower16:g_mcu_vars_param
	movt	r0, :upper16:g_mcu_vars_param
	add	r0, r1
	ldrb.w	r0, [r0, #36]
	.loc	1 23 9                          @ ../../thd_dsp_download_release_V0_0/mailbox_i2c_interface.c:23:9
	ldr	r1, [sp, #16]
	.loc	1 23 15                         @ ../../thd_dsp_download_release_V0_0/mailbox_i2c_interface.c:23:15
	ldr	r2, [sp, #4]
	.loc	1 23 21                         @ ../../thd_dsp_download_release_V0_0/mailbox_i2c_interface.c:23:21
	ldr	r3, [sp]
	.loc	1 23 19                         @ ../../thd_dsp_download_release_V0_0/mailbox_i2c_interface.c:23:19
	add	r2, r3
	.loc	1 23 24                         @ ../../thd_dsp_download_release_V0_0/mailbox_i2c_interface.c:23:24
	strb	r0, [r1, r2]
	.loc	1 24 5 is_stmt 1                @ ../../thd_dsp_download_release_V0_0/mailbox_i2c_interface.c:24:5
	b	.LBB0_5
.Ltmp9:
.LBB0_5:                                @   in Loop: Header=BB0_3 Depth=1
	.loc	1 21 23                         @ ../../thd_dsp_download_release_V0_0/mailbox_i2c_interface.c:21:23
	ldr	r0, [sp]
	adds	r0, #1
	str	r0, [sp]
	.loc	1 21 5 is_stmt 0                @ ../../thd_dsp_download_release_V0_0/mailbox_i2c_interface.c:21:5
	b	.LBB0_3
.Ltmp10:
.LBB0_6:
	.loc	1 26 2 is_stmt 1                @ ../../thd_dsp_download_release_V0_0/mailbox_i2c_interface.c:26:2
	b	.LBB0_7
.LBB0_7:
	.loc	1 27 1                          @ ../../thd_dsp_download_release_V0_0/mailbox_i2c_interface.c:27:1
	add	sp, #24
	pop	{r7, pc}
.Ltmp11:
.Lfunc_end0:
	.size	mailbox_i2c_dsp_ticks_reg_read, .Lfunc_end0-mailbox_i2c_dsp_ticks_reg_read
	.cfi_endproc
	.cantunwind
	.fnend
                                        @ -- End function
	.section	.text.mailbox_i2c_dsp_fw_reg_read,"ax",%progbits
	.hidden	mailbox_i2c_dsp_fw_reg_read     @ -- Begin function mailbox_i2c_dsp_fw_reg_read
	.globl	mailbox_i2c_dsp_fw_reg_read
	.p2align	2
	.type	mailbox_i2c_dsp_fw_reg_read,%function
	.code	16                              @ @mailbox_i2c_dsp_fw_reg_read
	.thumb_func
mailbox_i2c_dsp_fw_reg_read:
.Lfunc_begin1:
	.loc	1 30 0                          @ ../../thd_dsp_download_release_V0_0/mailbox_i2c_interface.c:30:0
	.fnstart
	.cfi_startproc
@ %bb.0:
	.save	{r7, lr}
	push	{r7, lr}
	.cfi_def_cfa_offset 8
	.cfi_offset lr, -4
	.cfi_offset r7, -8
	.pad	#24
	sub	sp, #24
	.cfi_def_cfa_offset 32
                                        @ kill: def $r3 killed $r0
	strb.w	r0, [sp, #23]
	str	r1, [sp, #16]
	str	r2, [sp, #12]
	movs	r0, #0
.Ltmp12:
	.loc	1 31 11 prologue_end            @ ../../thd_dsp_download_release_V0_0/mailbox_i2c_interface.c:31:11
	str	r0, [sp, #8]
	.loc	1 32 14                         @ ../../thd_dsp_download_release_V0_0/mailbox_i2c_interface.c:32:14
	str	r0, [sp, #4]
	.loc	1 33 14                         @ ../../thd_dsp_download_release_V0_0/mailbox_i2c_interface.c:33:14
	str	r0, [sp]
.Ltmp13:
	.loc	1 37 13                         @ ../../thd_dsp_download_release_V0_0/mailbox_i2c_interface.c:37:13
	ldr	r0, [sp, #16]
.Ltmp14:
	.loc	1 37 5 is_stmt 0                @ ../../thd_dsp_download_release_V0_0/mailbox_i2c_interface.c:37:5
	cbnz	r0, .LBB1_2
	b	.LBB1_1
.LBB1_1:
.Ltmp15:
	.loc	1 39 3 is_stmt 1                @ ../../thd_dsp_download_release_V0_0/mailbox_i2c_interface.c:39:3
	b	.LBB1_7
.Ltmp16:
.LBB1_2:
	.loc	1 42 10                         @ ../../thd_dsp_download_release_V0_0/mailbox_i2c_interface.c:42:10
	ldr	r0, [sp, #16]
	.loc	1 42 33 is_stmt 0               @ ../../thd_dsp_download_release_V0_0/mailbox_i2c_interface.c:42:33
	movw	r1, :lower16:g_mcu_vars_param
	movt	r1, :upper16:g_mcu_vars_param
	ldr	r1, [r1, #32]
	.loc	1 42 2                          @ ../../thd_dsp_download_release_V0_0/mailbox_i2c_interface.c:42:2
	bl	set_u32
	.loc	1 43 9 is_stmt 1                @ ../../thd_dsp_download_release_V0_0/mailbox_i2c_interface.c:43:9
	ldr	r0, [sp, #4]
	adds	r0, #4
	str	r0, [sp, #4]
	movs	r0, #0
.Ltmp17:
	.loc	1 45 11                         @ ../../thd_dsp_download_release_V0_0/mailbox_i2c_interface.c:45:11
	str	r0, [sp]
	.loc	1 45 9 is_stmt 0                @ ../../thd_dsp_download_release_V0_0/mailbox_i2c_interface.c:45:9
	b	.LBB1_3
.LBB1_3:                                @ =>This Inner Loop Header: Depth=1
.Ltmp18:
	.loc	1 45 16                         @ ../../thd_dsp_download_release_V0_0/mailbox_i2c_interface.c:45:16
	ldr	r0, [sp]
.Ltmp19:
	.loc	1 45 5                          @ ../../thd_dsp_download_release_V0_0/mailbox_i2c_interface.c:45:5
	cmp	r0, #17
	bhi	.LBB1_6
	b	.LBB1_4
.LBB1_4:                                @   in Loop: Header=BB1_3 Depth=1
.Ltmp20:
	.loc	1 48 63 is_stmt 1               @ ../../thd_dsp_download_release_V0_0/mailbox_i2c_interface.c:48:63
	ldr	r1, [sp]
	.loc	1 48 26 is_stmt 0               @ ../../thd_dsp_download_release_V0_0/mailbox_i2c_interface.c:48:26
	movw	r0, :lower16:g_mcu_vars_param
	movt	r0, :upper16:g_mcu_vars_param
	add	r0, r1
	ldrb.w	r0, [r0, #48]
	.loc	1 48 9                          @ ../../thd_dsp_download_release_V0_0/mailbox_i2c_interface.c:48:9
	ldr	r1, [sp, #16]
	.loc	1 48 15                         @ ../../thd_dsp_download_release_V0_0/mailbox_i2c_interface.c:48:15
	ldr	r2, [sp, #4]
	.loc	1 48 21                         @ ../../thd_dsp_download_release_V0_0/mailbox_i2c_interface.c:48:21
	ldr	r3, [sp]
	.loc	1 48 19                         @ ../../thd_dsp_download_release_V0_0/mailbox_i2c_interface.c:48:19
	add	r2, r3
	.loc	1 48 24                         @ ../../thd_dsp_download_release_V0_0/mailbox_i2c_interface.c:48:24
	strb	r0, [r1, r2]
	.loc	1 49 5 is_stmt 1                @ ../../thd_dsp_download_release_V0_0/mailbox_i2c_interface.c:49:5
	b	.LBB1_5
.Ltmp21:
.LBB1_5:                                @   in Loop: Header=BB1_3 Depth=1
	.loc	1 45 24                         @ ../../thd_dsp_download_release_V0_0/mailbox_i2c_interface.c:45:24
	ldr	r0, [sp]
	adds	r0, #1
	str	r0, [sp]
	.loc	1 45 5 is_stmt 0                @ ../../thd_dsp_download_release_V0_0/mailbox_i2c_interface.c:45:5
	b	.LBB1_3
.Ltmp22:
.LBB1_6:
	.loc	1 51 2 is_stmt 1                @ ../../thd_dsp_download_release_V0_0/mailbox_i2c_interface.c:51:2
	b	.LBB1_7
.LBB1_7:
	.loc	1 52 1                          @ ../../thd_dsp_download_release_V0_0/mailbox_i2c_interface.c:52:1
	add	sp, #24
	pop	{r7, pc}
.Ltmp23:
.Lfunc_end1:
	.size	mailbox_i2c_dsp_fw_reg_read, .Lfunc_end1-mailbox_i2c_dsp_fw_reg_read
	.cfi_endproc
	.cantunwind
	.fnend
                                        @ -- End function
	.file	2 "D:\\D\\app\\kevil5\\ARM\\ARMCLANG\\Bin\\..\\include" "stdint.h"
	.section	".note.GNU-stack","",%progbits
	.eabi_attribute	30, 6	@ Tag_ABI_optimization_goals
	.ARM_attribute	16, 1	@ Tag_AV_eba